target datalayout = "e-m:e-p270:32:32-p271:32:32-p272:64:64-i64:64-i128:128-f80:128-n8:16:32:64-S128"
target triple = "x86_64-pc-linux-gnu"

%struct.jpeg_compress_struct = type { ptr, ptr, ptr, ptr, i32, i32, ptr, i32, i32, i32, i32, double, i32, i32, i32, i32, i32, i32, i32, ptr, [4 x ptr], [4 x i32], [4 x ptr], [4 x ptr], [16 x i8], [16 x i8], [16 x i8], i32, ptr, i32, i32, i32, i32, i32, i32, i32, i32, i32, i32, i8, i8, i8, i16, i16, i32, i32, i32, i32, i32, i32, i32, i32, i32, [4 x ptr], i32, i32, i32, [10 x i32], i32, i32, i32, i32, ptr, ptr, ptr, ptr, ptr, ptr, ptr, ptr, ptr, ptr, i32 }
%"struct.mitsuba::jbuf_out_t" = type { %struct.jpeg_destination_mgr, ptr, ptr }
%struct.jpeg_destination_mgr = type { ptr, i64, ptr, ptr, ptr }

; Function Attrs: mustprogress uwtable
define internal void @_ZN7mitsubaL21jpeg_term_destinationEP20jpeg_compress_struct(ptr noundef %0) #0 {
  %2 = alloca ptr, align 8
  %3 = alloca ptr, align 8
  store ptr %0, ptr %2, align 8
  %4 = load ptr, ptr %2, align 8
  %5 = getelementptr inbounds %struct.jpeg_compress_struct, ptr %4, i32 0, i32 6
  %6 = load ptr, ptr %5, align 8
  store ptr %6, ptr %3, align 8
  %7 = load ptr, ptr %3, align 8
  %8 = getelementptr inbounds %"struct.mitsuba::jbuf_out_t", ptr %7, i32 0, i32 2
  %9 = load ptr, ptr %8, align 8
  %10 = load ptr, ptr %3, align 8
  %11 = getelementptr inbounds %"struct.mitsuba::jbuf_out_t", ptr %10, i32 0, i32 1
  %12 = load ptr, ptr %11, align 8
  %13 = load ptr, ptr %3, align 8
  %14 = getelementptr inbounds %"struct.mitsuba::jbuf_out_t", ptr %13, i32 0, i32 0
  %15 = getelementptr inbounds %struct.jpeg_destination_mgr, ptr %14, i32 0, i32 1
  %16 = load i64, ptr %15, align 8
  %17 = sub i64 32768, %16
  %18 = load ptr, ptr %9, align 8
  %19 = getelementptr inbounds ptr, ptr %18, i64 12
  %20 = load ptr, ptr %19, align 8
  call void %20(ptr noundef nonnull align 8 dereferenceable(16) %9, ptr noundef %12, i64 noundef %17)
  %21 = load ptr, ptr %3, align 8
  %22 = getelementptr inbounds %"struct.mitsuba::jbuf_out_t", ptr %21, i32 0, i32 1
  %23 = load ptr, ptr %22, align 8
  %24 = icmp eq ptr %23, null
  br i1 %24, label %26, label %25

25:                                               ; preds = %1
  call void @_ZdaPv(ptr noundef %23) #33
  br label %26

26:                                               ; preds = %25, %1
  %27 = load ptr, ptr %3, align 8
  %28 = getelementptr inbounds %"struct.mitsuba::jbuf_out_t", ptr %27, i32 0, i32 0
  %29 = getelementptr inbounds %struct.jpeg_destination_mgr, ptr %28, i32 0, i32 1
  store i64 0, ptr %29, align 8
  ret void
}