; Function Attrs: mustprogress uwtable
define internal void @_ZN7mitsubaL21jpeg_term_destinationEP20jpeg_compress_struct(ptr nocapture noundef readonly %0) #0 {
  %2 = getelementptr inbounds i8, ptr %0, i64 40
  %3 = load ptr, ptr %2, align 8
  %4 = getelementptr inbounds i8, ptr %3, i64 48
  %5 = load ptr, ptr %4, align 8
  %6 = getelementptr inbounds i8, ptr %3, i64 40
  %7 = load ptr, ptr %6, align 8
  %8 = getelementptr inbounds i8, ptr %3, i64 8
  %9 = load i64, ptr %8, align 8
  %10 = sub i64 32768, %9
  %11 = load ptr, ptr %5, align 8
  %12 = getelementptr inbounds i8, ptr %11, i64 96
  %13 = load ptr, ptr %12, align 8
  tail call void %13(ptr noundef nonnull align 8 dereferenceable(16) %5, ptr noundef %7, i64 noundef %10)
  %14 = load ptr, ptr %6, align 8
  %15 = icmp eq ptr %14, null
  br i1 %15, label %17, label %16

16:                                               ; preds = %1
  tail call void @_ZdaPv(ptr noundef nonnull %14) #35
  br label %17

17:                                               ; preds = %16, %1
  store i64 0, ptr %8, align 8
  ret void
}